target datalayout = "e-m:e-p270:32:32-p271:32:32-p272:64:64-i64:64-i128:128-f80:128-n8:16:32:64-S128"
target triple = "x86_64-pc-linux-gnu"

%struct.Agobj_s = type { %struct.Agtag_s, ptr }
%struct.Agtag_s = type { i32, i64 }
%struct.Agraphinfo_t = type { %struct.Agrec_s, ptr, ptr, %struct.boxf, [4 x %struct.pointf_s], i8, i8, i8, i8, i32, double, double, i16, ptr, ptr, ptr, ptr, i32, ptr, ptr, ptr, ptr, i16, i16, i32, ptr, ptr, ptr, ptr, ptr, i32, ptr, ptr, %struct.nlist_t, ptr, ptr, i64, i32, i32, i8, i8, i32, i32, i32, ptr, ptr, ptr, ptr, i8, i8, i8, i8, i8 }
%struct.Agrec_s = type { ptr, ptr }
%struct.boxf = type { %struct.pointf_s, %struct.pointf_s }
%struct.pointf_s = type { double, double }
%struct.nlist_t = type { ptr, i64 }
%struct.GVC_s = type { %struct.GVCOMMON_s, ptr, i8, ptr, i32, ptr, ptr, [5 x ptr], [5 x ptr], ptr, ptr, %struct._dtdisc_s, ptr, %struct.gvplugin_active_textlayout_s, ptr, ptr, ptr, %struct.gvplugin_active_layout_s, ptr, ptr, ptr, %struct.pointf_s, %struct.pointf_s, %struct.pointf_s, %struct.point, %struct.boxf, i32, i8, i8, i8, ptr, ptr, ptr, ptr, i32, ptr, ptr, double, ptr, %struct.color_s, i32 }
%struct.GVCOMMON_s = type { ptr, ptr, i32, i8, i8, ptr, ptr, ptr, i32, ptr, i32 }
%struct._dtdisc_s = type { i32, i32, i32, ptr, ptr, ptr }
%struct.gvplugin_active_textlayout_s = type { ptr, i32, ptr }
%struct.gvplugin_active_layout_s = type { ptr, i32, ptr, ptr }
%struct.point = type { i32, i32 }
%struct.color_s = type { %union.anon.0, i32 }
%union.anon.0 = type { [4 x double] }
%struct.GVJ_s = type { ptr, ptr, ptr, ptr, ptr, ptr, i32, ptr, ptr, ptr, ptr, i32, i32, ptr, i32, %struct.gvplugin_active_render_s, %struct.gvplugin_active_device_s, %struct.gvplugin_active_loadimage_t, ptr, %struct.pointf_s, i8, ptr, i32, ptr, i8, ptr, i32, i32, i32, %struct.point, %struct.point, %struct.point, %struct.point, %struct.point, i32, %struct.boxf, %struct.pointf_s, %struct.boxf, %struct.boxf, %struct.pointf_s, %struct.pointf_s, double, i32, %struct.pointf_s, %struct.boxf, %struct.pointf_s, %struct.pointf_s, i32, i32, %struct.box, %struct.box, %struct.pointf_s, %struct.pointf_s, %struct.pointf_s, i8, i8, i8, i8, i8, i8, %struct.pointf_s, %struct.pointf_s, ptr, ptr, ptr, ptr, %struct.gv_argvlist_s, %struct.gv_argvlist_s, ptr, ptr, i32, ptr }
%struct.gvplugin_active_render_s = type { ptr, i32, ptr, ptr }
%struct.gvplugin_active_device_s = type { ptr, i32, ptr, ptr }
%struct.gvplugin_active_loadimage_t = type { ptr, i32, ptr }
%struct.box = type { %struct.point, %struct.point }
%struct.gv_argvlist_s = type { ptr, i32, i32 }

@.str.6 = private unnamed_addr constant [44 x i8] c"Format: \22%s\22 not recognized. Use one of:%s\0A\00", align 1
@.str.7 = private unnamed_addr constant [13 x i8] c"Agraphinfo_t\00", align 1
@.str.8 = private unnamed_addr constant [21 x i8] c"Layout was not done\0A\00", align 1
@.str.9 = private unnamed_addr constant [37 x i8] c"failure malloc'ing for result string\00", align 1

; Function Attrs: nounwind uwtable
define i32 @gvRenderData(ptr noundef %0, ptr noundef %1, ptr noundef %2, ptr noundef %3, ptr noundef %4) #0 {
  %6 = alloca i32, align 4
  %7 = alloca ptr, align 8
  %8 = alloca ptr, align 8
  %9 = alloca ptr, align 8
  %10 = alloca ptr, align 8
  %11 = alloca ptr, align 8
  %12 = alloca i32, align 4
  %13 = alloca ptr, align 8
  %14 = alloca i8, align 1
  store ptr %0, ptr %7, align 8
  store ptr %1, ptr %8, align 8
  store ptr %2, ptr %9, align 8
  store ptr %3, ptr %10, align 8
  store ptr %4, ptr %11, align 8
  %15 = load ptr, ptr %7, align 8
  %16 = load ptr, ptr %9, align 8
  %17 = call zeroext i1 @gvjobs_output_langname(ptr noundef %15, ptr noundef %16)
  %18 = zext i1 %17 to i8
  store i8 %18, ptr %14, align 1
  %19 = load ptr, ptr %7, align 8
  %20 = getelementptr inbounds %struct.GVC_s, ptr %19, i32 0, i32 15
  %21 = load ptr, ptr %20, align 8
  store ptr %21, ptr %13, align 8
  %22 = load i8, ptr %14, align 1
  %23 = trunc i8 %22 to i1
  br i1 %23, label %30, label %24

24:                                               ; preds = %5
  %25 = load ptr, ptr %9, align 8
  %26 = load ptr, ptr %7, align 8
  %27 = load ptr, ptr %9, align 8
  %28 = call ptr @gvplugin_list(ptr noundef %26, i32 noundef 3, ptr noundef %27)
  %29 = call i32 (i32, ptr, ...) @agerr(i32 noundef 1, ptr noundef @.str.6, ptr noundef %25, ptr noundef %28)
  store i32 -1, ptr %6, align 4
  br label %91

30:                                               ; preds = %5
  %31 = load ptr, ptr %13, align 8
  %32 = load ptr, ptr %13, align 8
  %33 = getelementptr inbounds %struct.GVJ_s, ptr %32, i32 0, i32 13
  %34 = load ptr, ptr %33, align 8
  %35 = call i32 @gvrender_select(ptr noundef %31, ptr noundef %34)
  %36 = load ptr, ptr %13, align 8
  %37 = getelementptr inbounds %struct.GVJ_s, ptr %36, i32 0, i32 14
  store i32 %35, ptr %37, align 8
  %38 = load ptr, ptr %8, align 8
  %39 = call ptr @agbindrec(ptr noundef %38, ptr noundef @.str.7, i32 noundef 0, i32 noundef 1)
  %40 = icmp ne ptr %39, null
  br i1 %40, label %41, label %48

41:                                               ; preds = %30
  %42 = load ptr, ptr %8, align 8
  %43 = getelementptr inbounds %struct.Agobj_s, ptr %42, i32 0, i32 1
  %44 = load ptr, ptr %43, align 8
  %45 = getelementptr inbounds %struct.Agraphinfo_t, ptr %44, i32 0, i32 1
  %46 = load ptr, ptr %45, align 8
  %47 = icmp ne ptr %46, null
  br i1 %47, label %55, label %48

48:                                               ; preds = %41, %30
  %49 = load ptr, ptr %13, align 8
  %50 = getelementptr inbounds %struct.GVJ_s, ptr %49, i32 0, i32 26
  %51 = load i32, ptr %50, align 8
  %52 = and i32 %51, 67108864
  %53 = icmp ne i32 %52, 0
  br i1 %53, label %55, label %54

54:                                               ; preds = %48
  call void (ptr, ...) @agerrorf(ptr noundef @.str.8)
  store i32 -1, ptr %6, align 4
  br label %91

55:                                               ; preds = %48, %41
  %56 = load ptr, ptr %10, align 8
  %57 = icmp ne ptr %56, null
  br i1 %57, label %58, label %62

58:                                               ; preds = %55
  %59 = call noalias ptr @malloc(i64 noundef 4096) #5
  %60 = load ptr, ptr %10, align 8
  store ptr %59, ptr %60, align 8
  %61 = icmp ne ptr %59, null
  br i1 %61, label %64, label %62

62:                                               ; preds = %58, %55
  %63 = call i32 (i32, ptr, ...) @agerr(i32 noundef 1, ptr noundef @.str.9)
  store i32 -1, ptr %6, align 4
  br label %91

64:                                               ; preds = %58
  %65 = load ptr, ptr %10, align 8
  %66 = load ptr, ptr %65, align 8
  %67 = load ptr, ptr %13, align 8
  %68 = getelementptr inbounds %struct.GVJ_s, ptr %67, i32 0, i32 10
  store ptr %66, ptr %68, align 8
  %69 = load ptr, ptr %13, align 8
  %70 = getelementptr inbounds %struct.GVJ_s, ptr %69, i32 0, i32 11
  store i32 4096, ptr %70, align 8
  %71 = load ptr, ptr %13, align 8
  %72 = getelementptr inbounds %struct.GVJ_s, ptr %71, i32 0, i32 12
  store i32 0, ptr %72, align 4
  %73 = load ptr, ptr %7, align 8
  %74 = load ptr, ptr %8, align 8
  %75 = call i32 @gvRenderJobs(ptr noundef %73, ptr noundef %74)
  store i32 %75, ptr %12, align 4
  %76 = load ptr, ptr %13, align 8
  call void @gvrender_end_job(ptr noundef %76)
  %77 = load i32, ptr %12, align 4
  %78 = icmp eq i32 %77, 0
  br i1 %78, label %79, label %88

79:                                               ; preds = %64
  %80 = load ptr, ptr %13, align 8
  %81 = getelementptr inbounds %struct.GVJ_s, ptr %80, i32 0, i32 10
  %82 = load ptr, ptr %81, align 8
  %83 = load ptr, ptr %10, align 8
  store ptr %82, ptr %83, align 8
  %84 = load ptr, ptr %13, align 8
  %85 = getelementptr inbounds %struct.GVJ_s, ptr %84, i32 0, i32 12
  %86 = load i32, ptr %85, align 4
  %87 = load ptr, ptr %11, align 8
  store i32 %86, ptr %87, align 4
  br label %88

88:                                               ; preds = %79, %64
  %89 = load ptr, ptr %7, align 8
  call void @gvjobs_delete(ptr noundef %89)
  %90 = load i32, ptr %12, align 4
  store i32 %90, ptr %6, align 4
  br label %91

91:                                               ; preds = %88, %62, %54, %24
  %92 = load i32, ptr %6, align 4
  ret i32 %92
}