; Function Attrs: nounwind uwtable
define i32 @gvRenderData(ptr noundef %0, ptr noundef %1, ptr noundef %2, ptr noundef writeonly %3, ptr noundef writeonly captures(none) %4) local_unnamed_addr #0 {
  %6 = tail call zeroext i1 @gvjobs_output_langname(ptr noundef %0, ptr noundef %2) #8
  %7 = getelementptr inbounds nuw i8, ptr %0, i64 296
  %8 = load ptr, ptr %7, align 8
  br i1 %6, label %12, label %9

9:                                                ; preds = %5
  %10 = tail call ptr @gvplugin_list(ptr noundef nonnull %0, i32 noundef 3, ptr noundef %2) #8
  %11 = tail call i32 (i32, ptr, ...) @agerr(i32 noundef 1, ptr noundef nonnull @.str.6, ptr noundef %2, ptr noundef %10) #8
  br label %43

12:                                               ; preds = %5
  %13 = getelementptr inbounds nuw i8, ptr %8, i64 96
  %14 = load ptr, ptr %13, align 8
  %15 = tail call i32 @gvrender_select(ptr noundef %8, ptr noundef %14) #8
  %16 = getelementptr inbounds nuw i8, ptr %8, i64 104
  store i32 %15, ptr %16, align 8
  %17 = tail call ptr @agbindrec(ptr noundef %1, ptr noundef nonnull @.str.7, i32 noundef 0, i32 noundef 1) #8
  %.not = icmp eq ptr %17, null
  br i1 %.not, label %23, label %18

18:                                               ; preds = %12
  %19 = getelementptr inbounds nuw i8, ptr %1, i64 16
  %20 = load ptr, ptr %19, align 8
  %21 = getelementptr inbounds nuw i8, ptr %20, i64 16
  %22 = load ptr, ptr %21, align 8
  %.not31 = icmp eq ptr %22, null
  br i1 %.not31, label %23, label %28

23:                                               ; preds = %18, %12
  %24 = getelementptr inbounds nuw i8, ptr %8, i64 272
  %25 = load i32, ptr %24, align 8
  %26 = and i32 %25, 67108864
  %.not32 = icmp eq i32 %26, 0
  br i1 %.not32, label %27, label %28

27:                                               ; preds = %23
  tail call void (ptr, ...) @agerrorf(ptr noundef nonnull @.str.8) #8
  br label %43

28:                                               ; preds = %23, %18
  %.not33 = icmp eq ptr %3, null
  br i1 %.not33, label %31, label %29

29:                                               ; preds = %28
  %30 = tail call noalias dereferenceable_or_null(4096) ptr @malloc(i64 noundef 4096) #9
  store ptr %30, ptr %3, align 8
  %.not34 = icmp eq ptr %30, null
  br i1 %.not34, label %31, label %33

31:                                               ; preds = %29, %28
  %32 = tail call i32 (i32, ptr, ...) @agerr(i32 noundef 1, ptr noundef nonnull @.str.9) #8
  br label %43

33:                                               ; preds = %29
  %34 = getelementptr inbounds nuw i8, ptr %8, i64 80
  store ptr %30, ptr %34, align 8
  %35 = getelementptr inbounds nuw i8, ptr %8, i64 88
  store i32 4096, ptr %35, align 8
  %36 = getelementptr inbounds nuw i8, ptr %8, i64 92
  store i32 0, ptr %36, align 4
  %37 = tail call i32 @gvRenderJobs(ptr noundef nonnull %0, ptr noundef %1) #8
  tail call void @gvrender_end_job(ptr noundef nonnull %8) #8
  %38 = icmp eq i32 %37, 0
  br i1 %38, label %39, label %42

39:                                               ; preds = %33
  %40 = load ptr, ptr %34, align 8
  store ptr %40, ptr %3, align 8
  %41 = load i32, ptr %36, align 4
  store i32 %41, ptr %4, align 4
  br label %42

42:                                               ; preds = %39, %33
  tail call void @gvjobs_delete(ptr noundef nonnull %0) #8
  br label %43

43:                                               ; preds = %42, %31, %27, %9
  %.0 = phi i32 [ %37, %42 ], [ -1, %31 ], [ -1, %27 ], [ -1, %9 ]
  ret i32 %.0
}